; Function Attrs: mustprogress uwtable
define internal void @_ZN12_GLOBAL__N_116MergeCondVisitor5visitEP9AstNodeIf(ptr noundef nonnull align 8 dereferenceable(120) %0, ptr noundef %1) unnamed_addr #3 align 2 {
  %3 = tail call fastcc noundef zeroext i1 @_ZN12_GLOBAL__N_116MergeCondVisitor20checkOrMakeMergeableEPK11AstNodeStmt(ptr noundef nonnull align 8 dereferenceable(120) %0, ptr noundef %1)
  br i1 %3, label %11, label %4

4:                                                ; preds = %2
  %5 = getelementptr inbounds i8, ptr %1, i64 32
  %6 = load ptr, ptr %5, align 8
  %.not.i = icmp eq ptr %6, null
  br i1 %.not.i, label %_ZN9VNVisitor18iterateAndNextNullEP7AstNode.exit, label %7

7:                                                ; preds = %4
  tail call void @_ZN7AstNode14iterateAndNextER9VNVisitor(ptr noundef nonnull align 8 dereferenceable(152) %6, ptr noundef nonnull align 8 dereferenceable(32) %0)
  br label %_ZN9VNVisitor18iterateAndNextNullEP7AstNode.exit

_ZN9VNVisitor18iterateAndNextNullEP7AstNode.exit: ; preds = %4, %7
  %8 = getelementptr inbounds i8, ptr %1, i64 40
  %9 = load ptr, ptr %8, align 8
  %.not.i8 = icmp eq ptr %9, null
  br i1 %.not.i8, label %_ZN9VNVisitor18iterateAndNextNullEP7AstNode.exit9, label %10

10:                                               ; preds = %_ZN9VNVisitor18iterateAndNextNullEP7AstNode.exit
  tail call void @_ZN7AstNode14iterateAndNextER9VNVisitor(ptr noundef nonnull align 8 dereferenceable(152) %9, ptr noundef nonnull align 8 dereferenceable(32) %0)
  br label %_ZN9VNVisitor18iterateAndNextNullEP7AstNode.exit9

11:                                               ; preds = %2
  %12 = getelementptr inbounds i8, ptr %1, i64 24
  %13 = load ptr, ptr %12, align 8
  %14 = getelementptr inbounds i8, ptr %0, i64 64
  %15 = load ptr, ptr %14, align 8
  %.not.i10 = icmp eq ptr %15, null
  br i1 %.not.i10, label %_ZN12_GLOBAL__N_116MergeCondVisitor22mergeEndIfIncompatibleEPK7AstNodeS3_.exit, label %16

16:                                               ; preds = %11
  %17 = getelementptr inbounds i8, ptr %0, i64 88
  %18 = load ptr, ptr %17, align 8
  %.not3.i = icmp eq ptr %18, %1
  br i1 %.not3.i, label %19, label %23

19:                                               ; preds = %16
  %20 = getelementptr inbounds i8, ptr %0, i64 72
  %21 = load ptr, ptr %20, align 8
  %22 = tail call noundef zeroext i1 @_ZN7AstNode12sameTreeIterEPKS_S1_bb(ptr noundef nonnull %13, ptr noundef %21, i1 noundef zeroext true, i1 noundef zeroext false)
  br i1 %22, label %_ZN12_GLOBAL__N_116MergeCondVisitor22mergeEndIfIncompatibleEPK7AstNodeS3_.exit, label %23

23:                                               ; preds = %19, %16
  tail call fastcc void @_ZN12_GLOBAL__N_116MergeCondVisitor8mergeEndEv(ptr noundef nonnull align 8 dereferenceable(120) %0)
  br label %_ZN12_GLOBAL__N_116MergeCondVisitor22mergeEndIfIncompatibleEPK7AstNodeS3_.exit

_ZN12_GLOBAL__N_116MergeCondVisitor22mergeEndIfIncompatibleEPK7AstNodeS3_.exit: ; preds = %11, %19, %23
  %24 = load ptr, ptr %12, align 8
  tail call fastcc void @_ZN12_GLOBAL__N_116MergeCondVisitor9addToListEP11AstNodeStmtP11AstNodeExpr(ptr noundef nonnull align 8 dereferenceable(120) %0, ptr noundef nonnull %1, ptr noundef %24)
  br label %_ZN9VNVisitor18iterateAndNextNullEP7AstNode.exit9

_ZN9VNVisitor18iterateAndNextNullEP7AstNode.exit9: ; preds = %10, %_ZN9VNVisitor18iterateAndNextNullEP7AstNode.exit, %_ZN12_GLOBAL__N_116MergeCondVisitor22mergeEndIfIncompatibleEPK7AstNodeS3_.exit
  ret void
}